; Function Attrs: mustprogress nofree norecurse nosync nounwind willreturn memory(read, inaccessiblemem: none) uwtable
define noundef range(i32 -2147483647, -2147483648) i32 @_ZNK8QuantLib6detail14GsrProcessCore10upperIndexEd(ptr nocapture noundef nonnull readonly align 8 dereferenceable(360) %this, double noundef %t) local_unnamed_addr #7 align 2 {
entry:
  %cmp = fcmp olt double %t, 0x10000000000000
  br i1 %cmp, label %return, label %if.end

if.end:                                           ; preds = %entry
  %0 = load ptr, ptr %this, align 8, !tbaa !47
  %1 = load ptr, ptr %0, align 8, !tbaa !3
  %n_.i = getelementptr inbounds nuw i8, ptr %0, i64 8
  %2 = load i64, ptr %n_.i, align 8, !tbaa !36
  %sub = fadd double %t, 0xBCB0000000000000
  %sub.ptr.rhs.cast.i.i.i.i = ptrtoint ptr %1 to i64
  %cmp11.i.i = icmp sgt i64 %2, 0
  br i1 %cmp11.i.i, label %while.body.i.i, label %_ZSt11upper_boundIPKddET_S2_S2_RKT0_.exit

while.body.i.i:                                   ; preds = %if.end, %while.body.i.i
  %__first.addr.013.i.i = phi ptr [ %__first.addr.1.i.i, %while.body.i.i ], [ %1, %if.end ]
  %__len.012.i.i = phi i64 [ %__len.1.i.i, %while.body.i.i ], [ %2, %if.end ]
  %shr.i.i = lshr i64 %__len.012.i.i, 1
  %add.ptr.i.i.i.i = getelementptr inbounds double, ptr %__first.addr.013.i.i, i64 %shr.i.i
  %3 = load double, ptr %add.ptr.i.i.i.i, align 8, !tbaa !53
  %cmp.i.i.i = fcmp olt double %sub, %3
  %incdec.ptr.i.i = getelementptr inbounds nuw i8, ptr %add.ptr.i.i.i.i, i64 8
  %4 = xor i64 %shr.i.i, -1
  %sub2.i.i = add nsw i64 %__len.012.i.i, %4
  %__len.1.i.i = select i1 %cmp.i.i.i, i64 %shr.i.i, i64 %sub2.i.i
  %__first.addr.1.i.i = select i1 %cmp.i.i.i, ptr %__first.addr.013.i.i, ptr %incdec.ptr.i.i
  %cmp.i.i = icmp sgt i64 %__len.1.i.i, 0
  br i1 %cmp.i.i, label %while.body.i.i, label %_ZSt11upper_boundIPKddET_S2_S2_RKT0_.exit.loopexit, !llvm.loop !70

_ZSt11upper_boundIPKddET_S2_S2_RKT0_.exit.loopexit: ; preds = %while.body.i.i
  %.pre = ptrtoint ptr %__first.addr.1.i.i to i64
  br label %_ZSt11upper_boundIPKddET_S2_S2_RKT0_.exit

_ZSt11upper_boundIPKddET_S2_S2_RKT0_.exit:        ; preds = %_ZSt11upper_boundIPKddET_S2_S2_RKT0_.exit.loopexit, %if.end
  %sub.ptr.lhs.cast.pre-phi = phi i64 [ %.pre, %_ZSt11upper_boundIPKddET_S2_S2_RKT0_.exit.loopexit ], [ %sub.ptr.rhs.cast.i.i.i.i, %if.end ]
  %sub.ptr.sub = sub i64 %sub.ptr.lhs.cast.pre-phi, %sub.ptr.rhs.cast.i.i.i.i
  %sub.ptr.div = lshr exact i64 %sub.ptr.sub, 3
  %conv = trunc i64 %sub.ptr.div to i32
  %add = add nsw i32 %conv, 1
  br label %return

return:                                           ; preds = %entry, %_ZSt11upper_boundIPKddET_S2_S2_RKT0_.exit
  %retval.0 = phi i32 [ %add, %_ZSt11upper_boundIPKddET_S2_S2_RKT0_.exit ], [ 0, %entry ]
  ret i32 %retval.0
}